target datalayout = "e-m:e-p270:32:32-p271:32:32-p272:64:64-i64:64-i128:128-f80:128-n8:16:32:64-S128"
target triple = "x86_64-pc-linux-gnu"

@.str.2 = private unnamed_addr constant [31 x i8] c"../openssl/test/tls-provider.c\00", align 1
@__func__.xorx_key_to_pubkey = private unnamed_addr constant [19 x i8] c"xorx_key_to_pubkey\00", align 1

; Function Attrs: nounwind uwtable
define internal ptr @xorx_key_to_pubkey(ptr noundef %0, i32 noundef %1, ptr noundef %2, i32 noundef %3, ptr noundef %4) #0 {
  %6 = alloca ptr, align 8
  %7 = alloca i32, align 4
  %8 = alloca ptr, align 8
  %9 = alloca i32, align 4
  %10 = alloca ptr, align 8
  %11 = alloca ptr, align 8
  %12 = alloca i32, align 4
  %13 = alloca ptr, align 8
  store ptr %0, ptr %6, align 8, !tbaa !13
  store i32 %1, ptr %7, align 4, !tbaa !27
  store ptr %2, ptr %8, align 8, !tbaa !13
  store i32 %3, ptr %9, align 4, !tbaa !27
  store ptr %4, ptr %10, align 8, !tbaa !13
  call void @llvm.lifetime.start.p0(i64 8, ptr %11) #8
  store ptr null, ptr %11, align 8, !tbaa !30
  call void @llvm.lifetime.start.p0(i64 4, ptr %12) #8
  call void @llvm.lifetime.start.p0(i64 8, ptr %13) #8
  store ptr null, ptr %13, align 8, !tbaa !101
  %14 = call ptr @X509_PUBKEY_new()
  store ptr %14, ptr %13, align 8, !tbaa !101
  %15 = icmp eq ptr %14, null
  br i1 %15, label %29, label %16

16:                                               ; preds = %5
  %17 = load ptr, ptr %10, align 8, !tbaa !13
  %18 = load ptr, ptr %6, align 8, !tbaa !13
  %19 = call i32 %17(ptr noundef %18, ptr noundef %11)
  store i32 %19, ptr %12, align 4, !tbaa !27
  %20 = icmp sle i32 %19, 0
  br i1 %20, label %29, label %21

21:                                               ; preds = %16
  %22 = load ptr, ptr %13, align 8, !tbaa !101
  %23 = load i32, ptr %7, align 4, !tbaa !27
  %24 = call ptr @OBJ_nid2obj(i32 noundef %23)
  %25 = load ptr, ptr %11, align 8, !tbaa !30
  %26 = load i32, ptr %12, align 4, !tbaa !27
  %27 = call i32 @X509_PUBKEY_set0_param(ptr noundef %22, ptr noundef %24, i32 noundef -1, ptr noundef null, ptr noundef %25, i32 noundef %26)
  %28 = icmp ne i32 %27, 0
  br i1 %28, label %32, label %29

29:                                               ; preds = %21, %16, %5
  call void @ERR_new()
  call void @ERR_set_debug(ptr noundef @.str.2, i32 noundef 1427, ptr noundef @__func__.xorx_key_to_pubkey)
  call void (i32, i32, ptr, ...) @ERR_set_error(i32 noundef 128, i32 noundef 786688, ptr noundef null)
  %30 = load ptr, ptr %13, align 8, !tbaa !101
  call void @X509_PUBKEY_free(ptr noundef %30)
  %31 = load ptr, ptr %11, align 8, !tbaa !30
  call void @CRYPTO_free(ptr noundef %31, ptr noundef @.str.2, i32 noundef 1429)
  store ptr null, ptr %13, align 8, !tbaa !101
  br label %32

32:                                               ; preds = %29, %21
  %33 = load ptr, ptr %13, align 8, !tbaa !101
  call void @llvm.lifetime.end.p0(i64 8, ptr %13) #8
  call void @llvm.lifetime.end.p0(i64 4, ptr %12) #8
  call void @llvm.lifetime.end.p0(i64 8, ptr %11) #8
  ret ptr %33
}