; Function Attrs: nounwind uwtable
define internal fastcc ptr @xorx_key_to_pubkey(ptr noundef %0, i32 noundef %1, ptr noundef readonly captures(none) %2) unnamed_addr #0 {
  %4 = alloca ptr, align 8
  call void @llvm.lifetime.start.p0(i64 8, ptr nonnull %4) #16
  store ptr null, ptr %4, align 8, !tbaa !25
  %5 = tail call ptr @X509_PUBKEY_new() #16
  %6 = icmp eq ptr %5, null
  br i1 %6, label %14, label %7

7:                                                ; preds = %3
  %8 = call i32 %2(ptr noundef %0, ptr noundef nonnull %4) #16
  %9 = icmp slt i32 %8, 1
  br i1 %9, label %14, label %10

10:                                               ; preds = %7
  %11 = call ptr @OBJ_nid2obj(i32 noundef %1) #16
  %12 = load ptr, ptr %4, align 8, !tbaa !25
  %13 = call i32 @X509_PUBKEY_set0_param(ptr noundef nonnull %5, ptr noundef %11, i32 noundef -1, ptr noundef null, ptr noundef %12, i32 noundef %8) #16
  %.not = icmp eq i32 %13, 0
  br i1 %.not, label %14, label %16

14:                                               ; preds = %10, %7, %3
  call void @ERR_new() #16
  call void @ERR_set_debug(ptr noundef nonnull @.str.2, i32 noundef 1427, ptr noundef nonnull @__func__.xorx_key_to_pubkey) #16
  call void (i32, i32, ptr, ...) @ERR_set_error(i32 noundef 128, i32 noundef 786688, ptr noundef null) #16
  call void @X509_PUBKEY_free(ptr noundef %5) #16
  %15 = load ptr, ptr %4, align 8, !tbaa !25
  call void @CRYPTO_free(ptr noundef %15, ptr noundef nonnull @.str.2, i32 noundef 1429) #16
  br label %16

16:                                               ; preds = %14, %10
  %.0 = phi ptr [ null, %14 ], [ %5, %10 ]
  call void @llvm.lifetime.end.p0(i64 8, ptr nonnull %4) #16
  ret ptr %.0
}